; Function Attrs: mustprogress uwtable
define hidden void @_ZNK5ceres8internal19TripletSparseMatrix10ToTextFileEP8_IO_FILE(ptr nocapture noundef nonnull readonly align 8 dereferenceable(48) %0, ptr noundef %1) unnamed_addr #4 align 2 personality ptr @__gxx_personality_v0 {
  %3 = alloca %"class.google::LogMessageFatal", align 8
  %.not = icmp eq ptr %1, null
  br i1 %.not, label %10, label %.critedge.preheader

.critedge.preheader:                              ; preds = %2
  %4 = getelementptr inbounds i8, ptr %0, i64 20
  %5 = load i32, ptr %4, align 4
  %6 = icmp sgt i32 %5, 0
  br i1 %6, label %.lr.ph, label %.critedge._crit_edge

.lr.ph:                                           ; preds = %.critedge.preheader
  %7 = getelementptr inbounds i8, ptr %0, i64 24
  %8 = getelementptr inbounds i8, ptr %0, i64 32
  %9 = getelementptr inbounds i8, ptr %0, i64 40
  br label %.critedge

10:                                               ; preds = %2
  call void @_ZN6google15LogMessageFatalC1EPKci(ptr noundef nonnull align 8 dereferenceable(96) %3, ptr noundef nonnull @.str.3, i32 noundef 281)
  %11 = invoke noundef nonnull align 8 dereferenceable(8) ptr @_ZN6google10LogMessage6streamEv(ptr noundef nonnull align 8 dereferenceable(96) %3)
          to label %12 unwind label %15

12:                                               ; preds = %10
  %13 = invoke noundef nonnull align 8 dereferenceable(8) ptr @_ZStlsISt11char_traitsIcEERSt13basic_ostreamIcT_ES5_PKc(ptr noundef nonnull align 8 dereferenceable(8) %11, ptr noundef nonnull @.str.16)
          to label %14 unwind label %15

14:                                               ; preds = %12
  call void @_ZN6google15LogMessageFatalD1Ev(ptr noundef nonnull align 8 dereferenceable(96) %3) #27
  unreachable

15:                                               ; preds = %12, %10
  %16 = landingpad { ptr, i32 }
          cleanup
  call void @_ZN6google15LogMessageFatalD1Ev(ptr noundef nonnull align 8 dereferenceable(96) %3) #27
  unreachable

.critedge:                                        ; preds = %.lr.ph, %.critedge
  %indvars.iv = phi i64 [ 0, %.lr.ph ], [ %indvars.iv.next, %.critedge ]
  %17 = load ptr, ptr %7, align 8
  %18 = getelementptr inbounds i32, ptr %17, i64 %indvars.iv
  %19 = load i32, ptr %18, align 4
  %20 = load ptr, ptr %8, align 8
  %21 = getelementptr inbounds i32, ptr %20, i64 %indvars.iv
  %22 = load i32, ptr %21, align 4
  %23 = load ptr, ptr %9, align 8
  %24 = getelementptr inbounds double, ptr %23, i64 %indvars.iv
  %25 = load double, ptr %24, align 8
  %26 = tail call i32 (ptr, ptr, ...) @fprintf(ptr noundef nonnull %1, ptr noundef nonnull @.str.17, i32 noundef %19, i32 noundef %22, double noundef %25) #26
  %indvars.iv.next = add nuw nsw i64 %indvars.iv, 1
  %27 = load i32, ptr %4, align 4
  %28 = sext i32 %27 to i64
  %29 = icmp slt i64 %indvars.iv.next, %28
  br i1 %29, label %.critedge, label %.critedge._crit_edge, !llvm.loop !38

.critedge._crit_edge:                             ; preds = %.critedge, %.critedge.preheader
  ret void
}